; ModuleID = '38/624.c'
source_filename = "38/624.c"
target datalayout = "e-m:e-p270:32:32-p271:32:32-p272:64:64-i64:64-f80:128-n8:16:32:64-S128"
target triple = "x86_64-pc-linux-gnu"

@.str = private unnamed_addr constant [3 x i8] c"%d\00", align 1
@.str.1 = private unnamed_addr constant [4 x i8] c"%lf\00", align 1
@.str.2 = private unnamed_addr constant [6 x i8] c"%.5f\0A\00", align 1

; Function Attrs: noinline nounwind uwtable
define dso_local i32 @main() #0 {
  %1 = alloca i32, align 4
  %2 = alloca i32, align 4
  %3 = alloca [1000 x double], align 16
  %4 = alloca [100 x double], align 16
  %5 = alloca double, align 8
  %6 = alloca [100 x double], align 16
  %7 = alloca [100 x i32], align 16
  %8 = alloca i32, align 4
  %9 = alloca double, align 8
  %10 = alloca i32, align 4
  %11 = alloca i32, align 4
  %12 = alloca [100 x double], align 16
  %13 = alloca i32, align 4
  store i32 0, i32* %1, align 4
  %14 = call i32 (i8*, ...) @__isoc99_scanf(i8* getelementptr inbounds ([3 x i8], [3 x i8]* @.str, i64 0, i64 0), i32* %2)
  %15 = bitcast [100 x double]* %6 to i8*
  call void @llvm.memset.p0i8.i64(i8* align 16 %15, i8 0, i64 800, i1 false)
  store i32 0, i32* %8, align 4
  br label %16

16:                                               ; preds = %96, %0
  %17 = load i32, i32* %8, align 4
  %18 = load i32, i32* %2, align 4
  %19 = icmp slt i32 %17, %18
  br i1 %19, label %20, label %99

20:                                               ; preds = %16
  %21 = load i32, i32* %8, align 4
  %22 = sext i32 %21 to i64
  %23 = getelementptr inbounds [100 x i32], [100 x i32]* %7, i64 0, i64 %22
  %24 = call i32 (i8*, ...) @__isoc99_scanf(i8* getelementptr inbounds ([3 x i8], [3 x i8]* @.str, i64 0, i64 0), i32* %23)
  store double 0.000000e+00, double* %9, align 8
  store i32 0, i32* %10, align 4
  br label %25

25:                                               ; preds = %43, %20
  %26 = load i32, i32* %10, align 4
  %27 = load i32, i32* %8, align 4
  %28 = sext i32 %27 to i64
  %29 = getelementptr inbounds [100 x i32], [100 x i32]* %7, i64 0, i64 %28
  %30 = load i32, i32* %29, align 4
  %31 = icmp slt i32 %26, %30
  br i1 %31, label %32, label %46

32:                                               ; preds = %25
  %33 = load i32, i32* %10, align 4
  %34 = sext i32 %33 to i64
  %35 = getelementptr inbounds [1000 x double], [1000 x double]* %3, i64 0, i64 %34
  %36 = call i32 (i8*, ...) @__isoc99_scanf(i8* getelementptr inbounds ([4 x i8], [4 x i8]* @.str.1, i64 0, i64 0), double* %35)
  %37 = load i32, i32* %10, align 4
  %38 = sext i32 %37 to i64
  %39 = getelementptr inbounds [1000 x double], [1000 x double]* %3, i64 0, i64 %38
  %40 = load double, double* %39, align 8
  %41 = load double, double* %9, align 8
  %42 = fadd double %41, %40
  store double %42, double* %9, align 8
  br label %43

43:                                               ; preds = %32
  %44 = load i32, i32* %10, align 4
  %45 = add nsw i32 %44, 1
  store i32 %45, i32* %10, align 4
  br label %25

46:                                               ; preds = %25
  %47 = load double, double* %9, align 8
  %48 = load i32, i32* %8, align 4
  %49 = sext i32 %48 to i64
  %50 = getelementptr inbounds [100 x i32], [100 x i32]* %7, i64 0, i64 %49
  %51 = load i32, i32* %50, align 4
  %52 = sitofp i32 %51 to double
  %53 = fdiv double %47, %52
  %54 = load i32, i32* %8, align 4
  %55 = sext i32 %54 to i64
  %56 = getelementptr inbounds [100 x double], [100 x double]* %4, i64 0, i64 %55
  store double %53, double* %56, align 8
  %57 = load i32, i32* %8, align 4
  %58 = sext i32 %57 to i64
  %59 = getelementptr inbounds [100 x double], [100 x double]* %6, i64 0, i64 %58
  store double 0.000000e+00, double* %59, align 8
  store i32 0, i32* %11, align 4
  br label %60

60:                                               ; preds = %92, %46
  %61 = load i32, i32* %11, align 4
  %62 = load i32, i32* %8, align 4
  %63 = sext i32 %62 to i64
  %64 = getelementptr inbounds [100 x i32], [100 x i32]* %7, i64 0, i64 %63
  %65 = load i32, i32* %64, align 4
  %66 = icmp slt i32 %61, %65
  br i1 %66, label %67, label %95

67:                                               ; preds = %60
  %68 = load i32, i32* %11, align 4
  %69 = sext i32 %68 to i64
  %70 = getelementptr inbounds [1000 x double], [1000 x double]* %3, i64 0, i64 %69
  %71 = load double, double* %70, align 8
  %72 = load i32, i32* %8, align 4
  %73 = sext i32 %72 to i64
  %74 = getelementptr inbounds [100 x double], [100 x double]* %4, i64 0, i64 %73
  %75 = load double, double* %74, align 8
  %76 = fsub double %71, %75
  %77 = load i32, i32* %11, align 4
  %78 = sext i32 %77 to i64
  %79 = getelementptr inbounds [1000 x double], [1000 x double]* %3, i64 0, i64 %78
  %80 = load double, double* %79, align 8
  %81 = load i32, i32* %8, align 4
  %82 = sext i32 %81 to i64
  %83 = getelementptr inbounds [100 x double], [100 x double]* %4, i64 0, i64 %82
  %84 = load double, double* %83, align 8
  %85 = fsub double %80, %84
  %86 = fmul double %76, %85
  %87 = load i32, i32* %8, align 4
  %88 = sext i32 %87 to i64
  %89 = getelementptr inbounds [100 x double], [100 x double]* %6, i64 0, i64 %88
  %90 = load double, double* %89, align 8
  %91 = fadd double %90, %86
  store double %91, double* %89, align 8
  br label %92

92:                                               ; preds = %67
  %93 = load i32, i32* %11, align 4
  %94 = add nsw i32 %93, 1
  store i32 %94, i32* %11, align 4
  br label %60

95:                                               ; preds = %60
  br label %96

96:                                               ; preds = %95
  %97 = load i32, i32* %8, align 4
  %98 = add nsw i32 %97, 1
  store i32 %98, i32* %8, align 4
  br label %16

99:                                               ; preds = %16
  store i32 0, i32* %13, align 4
  br label %100

100:                                              ; preds = %124, %99
  %101 = load i32, i32* %13, align 4
  %102 = load i32, i32* %2, align 4
  %103 = icmp slt i32 %101, %102
  br i1 %103, label %104, label %127

104:                                              ; preds = %100
  %105 = load i32, i32* %13, align 4
  %106 = sext i32 %105 to i64
  %107 = getelementptr inbounds [100 x double], [100 x double]* %6, i64 0, i64 %106
  %108 = load double, double* %107, align 8
  %109 = load i32, i32* %13, align 4
  %110 = sext i32 %109 to i64
  %111 = getelementptr inbounds [100 x i32], [100 x i32]* %7, i64 0, i64 %110
  %112 = load i32, i32* %111, align 4
  %113 = sitofp i32 %112 to double
  %114 = fdiv double %108, %113
  %115 = call double @sqrt(double %114) #4
  %116 = load i32, i32* %13, align 4
  %117 = sext i32 %116 to i64
  %118 = getelementptr inbounds [100 x double], [100 x double]* %12, i64 0, i64 %117
  store double %115, double* %118, align 8
  %119 = load i32, i32* %13, align 4
  %120 = sext i32 %119 to i64
  %121 = getelementptr inbounds [100 x double], [100 x double]* %12, i64 0, i64 %120
  %122 = load double, double* %121, align 8
  %123 = call i32 (i8*, ...) @printf(i8* getelementptr inbounds ([6 x i8], [6 x i8]* @.str.2, i64 0, i64 0), double %122)
  br label %124

124:                                              ; preds = %104
  %125 = load i32, i32* %13, align 4
  %126 = add nsw i32 %125, 1
  store i32 %126, i32* %13, align 4
  br label %100

127:                                              ; preds = %100
  ret i32 0
}

declare dso_local i32 @__isoc99_scanf(i8*, ...) #1

; Function Attrs: argmemonly nounwind willreturn
declare void @llvm.memset.p0i8.i64(i8* nocapture writeonly, i8, i64, i1 immarg) #2

; Function Attrs: nounwind
declare dso_local double @sqrt(double) #3

declare dso_local i32 @printf(i8*, ...) #1


!llvm.module.flags = !{!0}
!llvm.ident = !{!1}

!0 = !{i32 1, !"wchar_size", i32 4}
!1 = !{!"clang version 10.0.0-4ubuntu1 "}
